; Function Attrs: mustprogress uwtable
define internal void @"_ZNSt17_Function_handlerIFN7rocksdb6StatusERKNS0_13ConfigOptionsERKNSt7__cxx1112basic_stringIcSt11char_traitsIcESaIcEEESC_PvENS0_3$_0EE9_M_invokeERKSt9_Any_dataS4_SC_SC_OSD_"(ptr dead_on_unwind noalias writable sret(%"class.rocksdb::Status") align 8 %0, ptr nonnull readnone align 8 captures(none) %1, ptr noundef nonnull align 8 dereferenceable(80) %2, ptr nonnull readnone align 8 captures(none) %3, ptr noundef nonnull align 8 dereferenceable(32) %4, ptr noundef nonnull readonly align 8 captures(none) dereferenceable(8) %5) #4 align 2 personality ptr @__gxx_personality_v0 {
  %7 = alloca %"struct.rocksdb::ColumnFamilyOptions", align 8
  %.val = load ptr, ptr %5, align 8, !tbaa !636
  call void @llvm.lifetime.start.p0(i64 832, ptr nonnull %7) #28, !noalias !708
  call void @_ZN7rocksdb19ColumnFamilyOptionsC1Ev(ptr noundef nonnull align 8 dereferenceable(832) %7), !noalias !708
  invoke void @_ZN7rocksdb32GetColumnFamilyOptionsFromStringERKNS_13ConfigOptionsERKNS_19ColumnFamilyOptionsERKNSt7__cxx1112basic_stringIcSt11char_traitsIcESaIcEEEPS3_(ptr dead_on_unwind writable sret(%"class.rocksdb::Status") align 8 %0, ptr noundef nonnull align 8 dereferenceable(80) %2, ptr noundef nonnull align 8 dereferenceable(832) %7, ptr noundef nonnull align 8 dereferenceable(32) %4, ptr noundef %.val)
          to label %"_ZSt10__invoke_rIN7rocksdb6StatusERNS0_3$_0EJRKNS0_13ConfigOptionsERKNSt7__cxx1112basic_stringIcSt11char_traitsIcESaIcEEESE_PvEENSt9enable_ifIX16is_invocable_r_vIT_T0_DpT1_EESH_E4typeEOSI_DpOSJ_.exit" unwind label %8

8:                                                ; preds = %6
  %9 = landingpad { ptr, i32 }
          cleanup
  call void @_ZN7rocksdb19ColumnFamilyOptionsD2Ev(ptr noundef nonnull align 8 dereferenceable(832) %7) #28
  call void @llvm.lifetime.end.p0(i64 832, ptr nonnull %7) #28, !noalias !708
  resume { ptr, i32 } %9

"_ZSt10__invoke_rIN7rocksdb6StatusERNS0_3$_0EJRKNS0_13ConfigOptionsERKNSt7__cxx1112basic_stringIcSt11char_traitsIcESaIcEEESE_PvEENSt9enable_ifIX16is_invocable_r_vIT_T0_DpT1_EESH_E4typeEOSI_DpOSJ_.exit": ; preds = %6
  call void @_ZN7rocksdb19ColumnFamilyOptionsD2Ev(ptr noundef nonnull align 8 dereferenceable(832) %7) #28
  call void @llvm.lifetime.end.p0(i64 832, ptr nonnull %7) #28, !noalias !708
  ret void
}